; ModuleID = '10/671.c'
source_filename = "10/671.c"
target datalayout = "e-m:e-p270:32:32-p271:32:32-p272:64:64-i64:64-f80:128-n8:16:32:64-S128"
target triple = "x86_64-pc-linux-gnu"

@.str = private unnamed_addr constant [3 x i8] c"%d\00", align 1

; Function Attrs: noinline nounwind uwtable
define dso_local i32 @main() #0 {
  %1 = alloca i32, align 4
  %2 = alloca i32, align 4
  %3 = alloca [25 x i32], align 16
  %4 = alloca [25 x i32], align 16
  %5 = alloca i32, align 4
  %6 = alloca i32, align 4
  %7 = alloca i32, align 4
  store i32 0, i32* %1, align 4
  %8 = call i32 (i8*, ...) @__isoc99_scanf(i8* getelementptr inbounds ([3 x i8], [3 x i8]* @.str, i64 0, i64 0), i32* %2)
  store i32 0, i32* %6, align 4
  br label %9

9:                                                ; preds = %18, %0
  %10 = load i32, i32* %6, align 4
  %11 = load i32, i32* %2, align 4
  %12 = icmp slt i32 %10, %11
  br i1 %12, label %13, label %21

13:                                               ; preds = %9
  %14 = load i32, i32* %6, align 4
  %15 = sext i32 %14 to i64
  %16 = getelementptr inbounds [25 x i32], [25 x i32]* %3, i64 0, i64 %15
  %17 = call i32 (i8*, ...) @__isoc99_scanf(i8* getelementptr inbounds ([3 x i8], [3 x i8]* @.str, i64 0, i64 0), i32* %16)
  br label %18

18:                                               ; preds = %13
  %19 = load i32, i32* %6, align 4
  %20 = add nsw i32 %19, 1
  store i32 %20, i32* %6, align 4
  br label %9

21:                                               ; preds = %9
  store i32 1, i32* %6, align 4
  br label %22

22:                                               ; preds = %65, %21
  %23 = load i32, i32* %6, align 4
  %24 = load i32, i32* %2, align 4
  %25 = icmp slt i32 %23, %24
  br i1 %25, label %26, label %68

26:                                               ; preds = %22
  %27 = getelementptr inbounds [25 x i32], [25 x i32]* %4, i64 0, i64 0
  store i32 1, i32* %27, align 16
  store i32 1, i32* %5, align 4
  store i32 0, i32* %7, align 4
  br label %28

28:                                               ; preds = %56, %26
  %29 = load i32, i32* %7, align 4
  %30 = load i32, i32* %6, align 4
  %31 = icmp slt i32 %29, %30
  br i1 %31, label %32, label %59

32:                                               ; preds = %28
  %33 = load i32, i32* %6, align 4
  %34 = sext i32 %33 to i64
  %35 = getelementptr inbounds [25 x i32], [25 x i32]* %3, i64 0, i64 %34
  %36 = load i32, i32* %35, align 4
  %37 = load i32, i32* %7, align 4
  %38 = sext i32 %37 to i64
  %39 = getelementptr inbounds [25 x i32], [25 x i32]* %3, i64 0, i64 %38
  %40 = load i32, i32* %39, align 4
  %41 = icmp slt i32 %36, %40
  br i1 %41, label %42, label %55

42:                                               ; preds = %32
  %43 = load i32, i32* %7, align 4
  %44 = sext i32 %43 to i64
  %45 = getelementptr inbounds [25 x i32], [25 x i32]* %4, i64 0, i64 %44
  %46 = load i32, i32* %45, align 4
  %47 = load i32, i32* %5, align 4
  %48 = icmp sgt i32 %46, %47
  br i1 %48, label %49, label %54

49:                                               ; preds = %42
  %50 = load i32, i32* %7, align 4
  %51 = sext i32 %50 to i64
  %52 = getelementptr inbounds [25 x i32], [25 x i32]* %4, i64 0, i64 %51
  %53 = load i32, i32* %52, align 4
  store i32 %53, i32* %5, align 4
  br label %54

54:                                               ; preds = %49, %42
  br label %55

55:                                               ; preds = %54, %32
  br label %56

56:                                               ; preds = %55
  %57 = load i32, i32* %7, align 4
  %58 = add nsw i32 %57, 1
  store i32 %58, i32* %7, align 4
  br label %28

59:                                               ; preds = %28
  %60 = load i32, i32* %5, align 4
  %61 = add nsw i32 %60, 1
  %62 = load i32, i32* %6, align 4
  %63 = sext i32 %62 to i64
  %64 = getelementptr inbounds [25 x i32], [25 x i32]* %4, i64 0, i64 %63
  store i32 %61, i32* %64, align 4
  br label %65

65:                                               ; preds = %59
  %66 = load i32, i32* %6, align 4
  %67 = add nsw i32 %66, 1
  store i32 %67, i32* %6, align 4
  br label %22

68:                                               ; preds = %22
  store i32 0, i32* %5, align 4
  store i32 0, i32* %6, align 4
  br label %69

69:                                               ; preds = %86, %68
  %70 = load i32, i32* %6, align 4
  %71 = load i32, i32* %2, align 4
  %72 = icmp slt i32 %70, %71
  br i1 %72, label %73, label %89

73:                                               ; preds = %69
  %74 = load i32, i32* %6, align 4
  %75 = sext i32 %74 to i64
  %76 = getelementptr inbounds [25 x i32], [25 x i32]* %4, i64 0, i64 %75
  %77 = load i32, i32* %76, align 4
  %78 = load i32, i32* %5, align 4
  %79 = icmp sgt i32 %77, %78
  br i1 %79, label %80, label %85

80:                                               ; preds = %73
  %81 = load i32, i32* %6, align 4
  %82 = sext i32 %81 to i64
  %83 = getelementptr inbounds [25 x i32], [25 x i32]* %4, i64 0, i64 %82
  %84 = load i32, i32* %83, align 4
  store i32 %84, i32* %5, align 4
  br label %85

85:                                               ; preds = %80, %73
  br label %86

86:                                               ; preds = %85
  %87 = load i32, i32* %6, align 4
  %88 = add nsw i32 %87, 1
  store i32 %88, i32* %6, align 4
  br label %69

89:                                               ; preds = %69
  %90 = load i32, i32* %5, align 4
  %91 = call i32 (i8*, ...) @printf(i8* getelementptr inbounds ([3 x i8], [3 x i8]* @.str, i64 0, i64 0), i32 %90)
  ret i32 0
}

declare dso_local i32 @__isoc99_scanf(i8*, ...) #1

declare dso_local i32 @printf(i8*, ...) #1


!llvm.module.flags = !{!0}
!llvm.ident = !{!1}

!0 = !{i32 1, !"wchar_size", i32 4}
!1 = !{!"clang version 10.0.0-4ubuntu1 "}
